; Function Attrs: nounwind uwtable
define noundef i64 @int44out(ptr noundef readonly captures(none) %0) local_unnamed_addr #1 {
  %2 = getelementptr inbounds nuw i8, ptr %0, i64 32
  %3 = load i64, ptr %2, align 8
  %4 = inttoptr i64 %3 to ptr
  %5 = tail call ptr @palloc(i64 noundef 64) #18
  %6 = load i32, ptr %4, align 4
  %7 = getelementptr inbounds nuw i8, ptr %4, i64 4
  %8 = load i32, ptr %7, align 4
  %9 = getelementptr inbounds nuw i8, ptr %4, i64 8
  %10 = load i32, ptr %9, align 4
  %11 = getelementptr inbounds nuw i8, ptr %4, i64 12
  %12 = load i32, ptr %11, align 4
  %13 = tail call i32 (ptr, i64, ptr, ...) @pg_snprintf(ptr noundef %5, i64 noundef 64, ptr noundef nonnull @.str.24, i32 noundef %6, i32 noundef %8, i32 noundef %10, i32 noundef %12) #18
  %14 = ptrtoint ptr %5 to i64
  ret i64 %14
}